target datalayout = "e-m:e-p270:32:32-p271:32:32-p272:64:64-i64:64-i128:128-f80:128-n8:16:32:64-S128"
target triple = "x86_64-pc-linux-gnu"

%struct.stb_vorbis = type { i32, i32, i32, i32, i32, ptr, i32, ptr, ptr, i32, i32, ptr, ptr, ptr, i32, i8, i32, %struct.ProbedPage, %struct.ProbedPage, %struct.stb_vorbis_alloc, i32, i32, i32, i32, [2 x i32], i32, i32, i32, ptr, i32, [64 x i16], ptr, i32, [64 x i16], ptr, i32, ptr, i32, [64 x %struct.Mode], i32, [16 x ptr], [16 x ptr], [16 x ptr], i32, [16 x ptr], i32, i32, [2 x ptr], [2 x ptr], [2 x ptr], [2 x ptr], [2 x ptr], i32, i32, i32, [255 x i8], i8, i8, i8, i32, i32, i32, i32, i32, i32, i32, i32, i32, i32, i32, [4 x %struct.CRCscan], i32, i32 }
%struct.ProbedPage = type { i32, i32, i32 }
%struct.stb_vorbis_alloc = type { ptr, i32 }
%struct.Mode = type { i8, i8, i16, i16 }
%struct.CRCscan = type { i32, i32, i32, i32, i32 }

; Function Attrs: nounwind uwtable
define ptr @get_window(ptr noundef %0, i32 noundef %1) #0 {
  %3 = alloca ptr, align 8
  %4 = alloca ptr, align 8
  %5 = alloca i32, align 4
  store ptr %0, ptr %4, align 8, !tbaa !3
  store i32 %1, ptr %5, align 4, !tbaa !8
  %6 = load i32, ptr %5, align 4, !tbaa !8
  %7 = shl i32 %6, 1
  store i32 %7, ptr %5, align 4, !tbaa !8
  %8 = load i32, ptr %5, align 4, !tbaa !8
  %9 = load ptr, ptr %4, align 8, !tbaa !3
  %10 = getelementptr inbounds nuw %struct.stb_vorbis, ptr %9, i32 0, i32 25
  %11 = load i32, ptr %10, align 8, !tbaa !154
  %12 = icmp eq i32 %8, %11
  br i1 %12, label %13, label %18

13:                                               ; preds = %2
  %14 = load ptr, ptr %4, align 8, !tbaa !3
  %15 = getelementptr inbounds nuw %struct.stb_vorbis, ptr %14, i32 0, i32 50
  %16 = getelementptr inbounds [2 x ptr], ptr %15, i64 0, i64 0
  %17 = load ptr, ptr %16, align 8, !tbaa !58
  store ptr %17, ptr %3, align 8
  br label %30

18:                                               ; preds = %2
  %19 = load i32, ptr %5, align 4, !tbaa !8
  %20 = load ptr, ptr %4, align 8, !tbaa !3
  %21 = getelementptr inbounds nuw %struct.stb_vorbis, ptr %20, i32 0, i32 26
  %22 = load i32, ptr %21, align 4, !tbaa !155
  %23 = icmp eq i32 %19, %22
  br i1 %23, label %24, label %29

24:                                               ; preds = %18
  %25 = load ptr, ptr %4, align 8, !tbaa !3
  %26 = getelementptr inbounds nuw %struct.stb_vorbis, ptr %25, i32 0, i32 50
  %27 = getelementptr inbounds [2 x ptr], ptr %26, i64 0, i64 1
  %28 = load ptr, ptr %27, align 8, !tbaa !58
  store ptr %28, ptr %3, align 8
  br label %30

29:                                               ; preds = %18
  store ptr null, ptr %3, align 8
  br label %30

30:                                               ; preds = %29, %24, %13
  %31 = load ptr, ptr %3, align 8
  ret ptr %31
}

; Function Attrs: nounwind uwtable
define i32 @vorbis_finish_frame(ptr noundef %0, i32 noundef %1, i32 noundef %2, i32 noundef %3) #0 {
  %5 = alloca i32, align 4
  %6 = alloca ptr, align 8
  %7 = alloca i32, align 4
  %8 = alloca i32, align 4
  %9 = alloca i32, align 4
  %10 = alloca i32, align 4
  %11 = alloca i32, align 4
  %12 = alloca i32, align 4
  %13 = alloca i32, align 4
  %14 = alloca i32, align 4
  %15 = alloca i32, align 4
  %16 = alloca ptr, align 8
  %17 = alloca i32, align 4
  store ptr %0, ptr %6, align 8, !tbaa !3
  store i32 %1, ptr %7, align 4, !tbaa !8
  store i32 %2, ptr %8, align 4, !tbaa !8
  store i32 %3, ptr %9, align 4, !tbaa !8
  call void @llvm.lifetime.start.p0(i64 4, ptr %10) #11
  call void @llvm.lifetime.start.p0(i64 4, ptr %11) #11
  call void @llvm.lifetime.start.p0(i64 4, ptr %12) #11
  %18 = load ptr, ptr %6, align 8, !tbaa !3
  %19 = getelementptr inbounds nuw %struct.stb_vorbis, ptr %18, i32 0, i32 43
  %20 = load i32, ptr %19, align 8, !tbaa !195
  %21 = icmp ne i32 %20, 0
  br i1 %21, label %22, label %104

22:                                               ; preds = %4
  call void @llvm.lifetime.start.p0(i64 4, ptr %13) #11
  call void @llvm.lifetime.start.p0(i64 4, ptr %14) #11
  call void @llvm.lifetime.start.p0(i64 4, ptr %15) #11
  %23 = load ptr, ptr %6, align 8, !tbaa !3
  %24 = getelementptr inbounds nuw %struct.stb_vorbis, ptr %23, i32 0, i32 43
  %25 = load i32, ptr %24, align 8, !tbaa !195
  store i32 %25, ptr %15, align 4, !tbaa !8
  call void @llvm.lifetime.start.p0(i64 8, ptr %16) #11
  %26 = load ptr, ptr %6, align 8, !tbaa !3
  %27 = load i32, ptr %15, align 4, !tbaa !8
  %28 = call ptr @get_window(ptr noundef %26, i32 noundef %27)
  store ptr %28, ptr %16, align 8, !tbaa !58
  %29 = load ptr, ptr %16, align 8, !tbaa !58
  %30 = icmp eq ptr %29, null
  br i1 %30, label %31, label %32

31:                                               ; preds = %22
  store i32 0, ptr %5, align 4
  store i32 1, ptr %17, align 4
  br label %101

32:                                               ; preds = %22
  store i32 0, ptr %13, align 4, !tbaa !8
  br label %33

33:                                               ; preds = %97, %32
  %34 = load i32, ptr %13, align 4, !tbaa !8
  %35 = load ptr, ptr %6, align 8, !tbaa !3
  %36 = getelementptr inbounds nuw %struct.stb_vorbis, ptr %35, i32 0, i32 1
  %37 = load i32, ptr %36, align 4, !tbaa !122
  %38 = icmp slt i32 %34, %37
  br i1 %38, label %39, label %100

39:                                               ; preds = %33
  store i32 0, ptr %14, align 4, !tbaa !8
  br label %40

40:                                               ; preds = %93, %39
  %41 = load i32, ptr %14, align 4, !tbaa !8
  %42 = load i32, ptr %15, align 4, !tbaa !8
  %43 = icmp slt i32 %41, %42
  br i1 %43, label %44, label %96

44:                                               ; preds = %40
  %45 = load ptr, ptr %6, align 8, !tbaa !3
  %46 = getelementptr inbounds nuw %struct.stb_vorbis, ptr %45, i32 0, i32 40
  %47 = load i32, ptr %13, align 4, !tbaa !8
  %48 = sext i32 %47 to i64
  %49 = getelementptr inbounds [16 x ptr], ptr %46, i64 0, i64 %48
  %50 = load ptr, ptr %49, align 8, !tbaa !58
  %51 = load i32, ptr %8, align 4, !tbaa !8
  %52 = load i32, ptr %14, align 4, !tbaa !8
  %53 = add nsw i32 %51, %52
  %54 = sext i32 %53 to i64
  %55 = getelementptr inbounds float, ptr %50, i64 %54
  %56 = load float, ptr %55, align 4, !tbaa !28
  %57 = load ptr, ptr %16, align 8, !tbaa !58
  %58 = load i32, ptr %14, align 4, !tbaa !8
  %59 = sext i32 %58 to i64
  %60 = getelementptr inbounds float, ptr %57, i64 %59
  %61 = load float, ptr %60, align 4, !tbaa !28
  %62 = load ptr, ptr %6, align 8, !tbaa !3
  %63 = getelementptr inbounds nuw %struct.stb_vorbis, ptr %62, i32 0, i32 42
  %64 = load i32, ptr %13, align 4, !tbaa !8
  %65 = sext i32 %64 to i64
  %66 = getelementptr inbounds [16 x ptr], ptr %63, i64 0, i64 %65
  %67 = load ptr, ptr %66, align 8, !tbaa !58
  %68 = load i32, ptr %14, align 4, !tbaa !8
  %69 = sext i32 %68 to i64
  %70 = getelementptr inbounds float, ptr %67, i64 %69
  %71 = load float, ptr %70, align 4, !tbaa !28
  %72 = load ptr, ptr %16, align 8, !tbaa !58
  %73 = load i32, ptr %15, align 4, !tbaa !8
  %74 = sub nsw i32 %73, 1
  %75 = load i32, ptr %14, align 4, !tbaa !8
  %76 = sub nsw i32 %74, %75
  %77 = sext i32 %76 to i64
  %78 = getelementptr inbounds float, ptr %72, i64 %77
  %79 = load float, ptr %78, align 4, !tbaa !28
  %80 = fmul float %71, %79
  %81 = call float @llvm.fmuladd.f32(float %56, float %61, float %80)
  %82 = load ptr, ptr %6, align 8, !tbaa !3
  %83 = getelementptr inbounds nuw %struct.stb_vorbis, ptr %82, i32 0, i32 40
  %84 = load i32, ptr %13, align 4, !tbaa !8
  %85 = sext i32 %84 to i64
  %86 = getelementptr inbounds [16 x ptr], ptr %83, i64 0, i64 %85
  %87 = load ptr, ptr %86, align 8, !tbaa !58
  %88 = load i32, ptr %8, align 4, !tbaa !8
  %89 = load i32, ptr %14, align 4, !tbaa !8
  %90 = add nsw i32 %88, %89
  %91 = sext i32 %90 to i64
  %92 = getelementptr inbounds float, ptr %87, i64 %91
  store float %81, ptr %92, align 4, !tbaa !28
  br label %93

93:                                               ; preds = %44
  %94 = load i32, ptr %14, align 4, !tbaa !8
  %95 = add nsw i32 %94, 1
  store i32 %95, ptr %14, align 4, !tbaa !8
  br label %40, !llvm.loop !196

96:                                               ; preds = %40
  br label %97

97:                                               ; preds = %96
  %98 = load i32, ptr %13, align 4, !tbaa !8
  %99 = add nsw i32 %98, 1
  store i32 %99, ptr %13, align 4, !tbaa !8
  br label %33, !llvm.loop !197

100:                                              ; preds = %33
  store i32 0, ptr %17, align 4
  br label %101

101:                                              ; preds = %100, %31
  call void @llvm.lifetime.end.p0(i64 8, ptr %16) #11
  call void @llvm.lifetime.end.p0(i64 4, ptr %15) #11
  call void @llvm.lifetime.end.p0(i64 4, ptr %14) #11
  call void @llvm.lifetime.end.p0(i64 4, ptr %13) #11
  %102 = load i32, ptr %17, align 4
  switch i32 %102, label %176 [
    i32 0, label %103
  ]

103:                                              ; preds = %101
  br label %104

104:                                              ; preds = %103, %4
  %105 = load ptr, ptr %6, align 8, !tbaa !3
  %106 = getelementptr inbounds nuw %struct.stb_vorbis, ptr %105, i32 0, i32 43
  %107 = load i32, ptr %106, align 8, !tbaa !195
  store i32 %107, ptr %10, align 4, !tbaa !8
  %108 = load i32, ptr %7, align 4, !tbaa !8
  %109 = load i32, ptr %9, align 4, !tbaa !8
  %110 = sub nsw i32 %108, %109
  %111 = load ptr, ptr %6, align 8, !tbaa !3
  %112 = getelementptr inbounds nuw %struct.stb_vorbis, ptr %111, i32 0, i32 43
  store i32 %110, ptr %112, align 8, !tbaa !195
  store i32 0, ptr %11, align 4, !tbaa !8
  br label %113

113:                                              ; preds = %152, %104
  %114 = load i32, ptr %11, align 4, !tbaa !8
  %115 = load ptr, ptr %6, align 8, !tbaa !3
  %116 = getelementptr inbounds nuw %struct.stb_vorbis, ptr %115, i32 0, i32 1
  %117 = load i32, ptr %116, align 4, !tbaa !122
  %118 = icmp slt i32 %114, %117
  br i1 %118, label %119, label %155

119:                                              ; preds = %113
  store i32 0, ptr %12, align 4, !tbaa !8
  br label %120

120:                                              ; preds = %148, %119
  %121 = load i32, ptr %9, align 4, !tbaa !8
  %122 = load i32, ptr %12, align 4, !tbaa !8
  %123 = add nsw i32 %121, %122
  %124 = load i32, ptr %7, align 4, !tbaa !8
  %125 = icmp slt i32 %123, %124
  br i1 %125, label %126, label %151

126:                                              ; preds = %120
  %127 = load ptr, ptr %6, align 8, !tbaa !3
  %128 = getelementptr inbounds nuw %struct.stb_vorbis, ptr %127, i32 0, i32 40
  %129 = load i32, ptr %11, align 4, !tbaa !8
  %130 = sext i32 %129 to i64
  %131 = getelementptr inbounds [16 x ptr], ptr %128, i64 0, i64 %130
  %132 = load ptr, ptr %131, align 8, !tbaa !58
  %133 = load i32, ptr %9, align 4, !tbaa !8
  %134 = load i32, ptr %12, align 4, !tbaa !8
  %135 = add nsw i32 %133, %134
  %136 = sext i32 %135 to i64
  %137 = getelementptr inbounds float, ptr %132, i64 %136
  %138 = load float, ptr %137, align 4, !tbaa !28
  %139 = load ptr, ptr %6, align 8, !tbaa !3
  %140 = getelementptr inbounds nuw %struct.stb_vorbis, ptr %139, i32 0, i32 42
  %141 = load i32, ptr %11, align 4, !tbaa !8
  %142 = sext i32 %141 to i64
  %143 = getelementptr inbounds [16 x ptr], ptr %140, i64 0, i64 %142
  %144 = load ptr, ptr %143, align 8, !tbaa !58
  %145 = load i32, ptr %12, align 4, !tbaa !8
  %146 = sext i32 %145 to i64
  %147 = getelementptr inbounds float, ptr %144, i64 %146
  store float %138, ptr %147, align 4, !tbaa !28
  br label %148

148:                                              ; preds = %126
  %149 = load i32, ptr %12, align 4, !tbaa !8
  %150 = add nsw i32 %149, 1
  store i32 %150, ptr %12, align 4, !tbaa !8
  br label %120, !llvm.loop !198

151:                                              ; preds = %120
  br label %152

152:                                              ; preds = %151
  %153 = load i32, ptr %11, align 4, !tbaa !8
  %154 = add nsw i32 %153, 1
  store i32 %154, ptr %11, align 4, !tbaa !8
  br label %113, !llvm.loop !199

155:                                              ; preds = %113
  %156 = load i32, ptr %10, align 4, !tbaa !8
  %157 = icmp ne i32 %156, 0
  br i1 %157, label %159, label %158

158:                                              ; preds = %155
  store i32 0, ptr %5, align 4
  store i32 1, ptr %17, align 4
  br label %176

159:                                              ; preds = %155
  %160 = load i32, ptr %7, align 4, !tbaa !8
  %161 = load i32, ptr %9, align 4, !tbaa !8
  %162 = icmp slt i32 %160, %161
  br i1 %162, label %163, label %165

163:                                              ; preds = %159
  %164 = load i32, ptr %7, align 4, !tbaa !8
  store i32 %164, ptr %9, align 4, !tbaa !8
  br label %165

165:                                              ; preds = %163, %159
  %166 = load i32, ptr %9, align 4, !tbaa !8
  %167 = load i32, ptr %8, align 4, !tbaa !8
  %168 = sub nsw i32 %166, %167
  %169 = load ptr, ptr %6, align 8, !tbaa !3
  %170 = getelementptr inbounds nuw %struct.stb_vorbis, ptr %169, i32 0, i32 68
  %171 = load i32, ptr %170, align 4, !tbaa !200
  %172 = add i32 %171, %168
  store i32 %172, ptr %170, align 4, !tbaa !200
  %173 = load i32, ptr %9, align 4, !tbaa !8
  %174 = load i32, ptr %8, align 4, !tbaa !8
  %175 = sub nsw i32 %173, %174
  store i32 %175, ptr %5, align 4
  store i32 1, ptr %17, align 4
  br label %176

176:                                              ; preds = %165, %158, %101
  call void @llvm.lifetime.end.p0(i64 4, ptr %12) #11
  call void @llvm.lifetime.end.p0(i64 4, ptr %11) #11
  call void @llvm.lifetime.end.p0(i64 4, ptr %10) #11
  %177 = load i32, ptr %5, align 4
  ret i32 %177
}