; Function Attrs: nofree norecurse nosync nounwind memory(readwrite, inaccessiblemem: none) uwtable
define i32 @vorbis_finish_frame(ptr noundef captures(none) %0, i32 noundef %1, i32 noundef %2, i32 noundef %3) local_unnamed_addr #27 {
  %5 = getelementptr inbounds nuw i8, ptr %0, i64 1272
  %6 = load i32, ptr %5, align 8, !tbaa !182
  %.not = icmp eq i32 %6, 0
  br i1 %.not, label %..loopexit_crit_edge, label %7

..loopexit_crit_edge:                             ; preds = %4
  %.phi.trans.insert = getelementptr inbounds nuw i8, ptr %0, i64 4
  %.pre = load i32, ptr %.phi.trans.insert, align 4, !tbaa !110
  br label %.loopexit

7:                                                ; preds = %4
  %8 = shl i32 %6, 1
  %9 = getelementptr inbounds nuw i8, ptr %0, i64 168
  %10 = load i32, ptr %9, align 8, !tbaa !141
  %11 = icmp eq i32 %8, %10
  br i1 %11, label %get_window.exit, label %12

12:                                               ; preds = %7
  %13 = getelementptr inbounds nuw i8, ptr %0, i64 172
  %14 = load i32, ptr %13, align 4, !tbaa !142
  %15 = icmp eq i32 %8, %14
  br i1 %15, label %get_window.exit, label %.critedge

get_window.exit:                                  ; preds = %7, %12
  %.sink8.i = phi i64 [ 1464, %7 ], [ 1472, %12 ]
  %16 = getelementptr inbounds nuw i8, ptr %0, i64 %.sink8.i
  %17 = load ptr, ptr %16, align 8, !tbaa !53
  %.not66 = icmp eq ptr %17, null
  br i1 %.not66, label %.critedge, label %.preheader71

.preheader71:                                     ; preds = %get_window.exit
  %18 = getelementptr inbounds nuw i8, ptr %0, i64 4
  %19 = load i32, ptr %18, align 4, !tbaa !110
  %20 = icmp sgt i32 %19, 0
  br i1 %20, label %.preheader70.lr.ph, label %._crit_edge76.thread

._crit_edge76.thread:                             ; preds = %.preheader71
  %21 = sub i32 %1, %3
  store i32 %21, ptr %5, align 8, !tbaa !182
  br label %61

.preheader70.lr.ph:                               ; preds = %.preheader71
  %22 = icmp sgt i32 %6, 0
  %23 = getelementptr inbounds nuw i8, ptr %0, i64 888
  %24 = getelementptr inbounds nuw i8, ptr %0, i64 1144
  br i1 %22, label %.preheader70.us.preheader, label %.loopexit.thread

.loopexit.thread:                                 ; preds = %.preheader70.lr.ph
  %25 = sub i32 %1, %3
  store i32 %25, ptr %5, align 8, !tbaa !182
  br label %.preheader.lr.ph

.preheader70.us.preheader:                        ; preds = %.preheader70.lr.ph
  %26 = sext i32 %2 to i64
  %27 = zext nneg i32 %6 to i64
  %wide.trip.count84 = zext nneg i32 %19 to i64
  %wide.trip.count = zext nneg i32 %6 to i64
  %28 = getelementptr float, ptr %17, i64 %27
  br label %.preheader70.us

.preheader70.us:                                  ; preds = %.preheader70.us.preheader, %._crit_edge.us
  %indvars.iv81 = phi i64 [ 0, %.preheader70.us.preheader ], [ %indvars.iv.next82, %._crit_edge.us ]
  %29 = getelementptr inbounds nuw [16 x ptr], ptr %23, i64 0, i64 %indvars.iv81
  %30 = load ptr, ptr %29, align 8, !tbaa !53
  %31 = getelementptr inbounds nuw [16 x ptr], ptr %24, i64 0, i64 %indvars.iv81
  %32 = load ptr, ptr %31, align 8, !tbaa !53
  %invariant.gep = getelementptr float, ptr %30, i64 %26
  br label %33

33:                                               ; preds = %.preheader70.us, %33
  %indvars.iv = phi i64 [ 0, %.preheader70.us ], [ %indvars.iv.next, %33 ]
  %gep = getelementptr float, ptr %invariant.gep, i64 %indvars.iv
  %34 = load float, ptr %gep, align 4, !tbaa !48
  %35 = getelementptr inbounds nuw float, ptr %17, i64 %indvars.iv
  %36 = load float, ptr %35, align 4, !tbaa !48
  %37 = getelementptr inbounds nuw float, ptr %32, i64 %indvars.iv
  %38 = load float, ptr %37, align 4, !tbaa !48
  %39 = xor i64 %indvars.iv, -1
  %40 = getelementptr float, ptr %28, i64 %39
  %41 = load float, ptr %40, align 4, !tbaa !48
  %42 = fmul float %38, %41
  %43 = tail call float @llvm.fmuladd.f32(float %34, float %36, float %42)
  store float %43, ptr %gep, align 4, !tbaa !48
  %indvars.iv.next = add nuw nsw i64 %indvars.iv, 1
  %exitcond.not = icmp eq i64 %indvars.iv.next, %wide.trip.count
  br i1 %exitcond.not, label %._crit_edge.us, label %33, !llvm.loop !183

._crit_edge.us:                                   ; preds = %33
  %indvars.iv.next82 = add nuw nsw i64 %indvars.iv81, 1
  %exitcond85.not = icmp eq i64 %indvars.iv.next82, %wide.trip.count84
  br i1 %exitcond85.not, label %.loopexit, label %.preheader70.us, !llvm.loop !184

.loopexit:                                        ; preds = %._crit_edge.us, %..loopexit_crit_edge
  %44 = phi i32 [ %.pre, %..loopexit_crit_edge ], [ %19, %._crit_edge.us ]
  %45 = sub i32 %1, %3
  store i32 %45, ptr %5, align 8, !tbaa !182
  %46 = icmp sgt i32 %44, 0
  br i1 %46, label %.preheader.lr.ph, label %._crit_edge76

.preheader.lr.ph:                                 ; preds = %.loopexit.thread, %.loopexit
  %47 = phi i32 [ %25, %.loopexit.thread ], [ %45, %.loopexit ]
  %48 = phi i32 [ %19, %.loopexit.thread ], [ %44, %.loopexit ]
  %49 = icmp slt i32 %3, %1
  %50 = getelementptr inbounds nuw i8, ptr %0, i64 888
  %51 = getelementptr inbounds nuw i8, ptr %0, i64 1144
  br i1 %49, label %.preheader.us.preheader, label %._crit_edge76

.preheader.us.preheader:                          ; preds = %.preheader.lr.ph
  %52 = sext i32 %3 to i64
  %wide.trip.count98 = zext nneg i32 %48 to i64
  %wide.trip.count93 = zext i32 %47 to i64
  br label %.preheader.us

.preheader.us:                                    ; preds = %.preheader.us.preheader, %._crit_edge.us77
  %indvars.iv95 = phi i64 [ 0, %.preheader.us.preheader ], [ %indvars.iv.next96, %._crit_edge.us77 ]
  %53 = getelementptr inbounds nuw [16 x ptr], ptr %50, i64 0, i64 %indvars.iv95
  %54 = load ptr, ptr %53, align 8, !tbaa !53
  %55 = getelementptr inbounds nuw [16 x ptr], ptr %51, i64 0, i64 %indvars.iv95
  %56 = load ptr, ptr %55, align 8, !tbaa !53
  br label %57

57:                                               ; preds = %.preheader.us, %57
  %indvars.iv88 = phi i64 [ 0, %.preheader.us ], [ %indvars.iv.next89, %57 ]
  %indvars.iv86 = phi i64 [ %52, %.preheader.us ], [ %indvars.iv.next87, %57 ]
  %58 = getelementptr inbounds float, ptr %54, i64 %indvars.iv86
  %59 = load float, ptr %58, align 4, !tbaa !48
  %60 = getelementptr inbounds nuw float, ptr %56, i64 %indvars.iv88
  store float %59, ptr %60, align 4, !tbaa !48
  %indvars.iv.next89 = add nuw nsw i64 %indvars.iv88, 1
  %indvars.iv.next87 = add nsw i64 %indvars.iv86, 1
  %exitcond94.not = icmp eq i64 %indvars.iv.next89, %wide.trip.count93
  br i1 %exitcond94.not, label %._crit_edge.us77, label %57, !llvm.loop !185

._crit_edge.us77:                                 ; preds = %57
  %indvars.iv.next96 = add nuw nsw i64 %indvars.iv95, 1
  %exitcond99.not = icmp eq i64 %indvars.iv.next96, %wide.trip.count98
  br i1 %exitcond99.not, label %._crit_edge76, label %.preheader.us, !llvm.loop !186

._crit_edge76:                                    ; preds = %._crit_edge.us77, %.preheader.lr.ph, %.loopexit
  br i1 %.not, label %.critedge, label %61

61:                                               ; preds = %._crit_edge76.thread, %._crit_edge76
  %spec.select = tail call i32 @llvm.smin.i32(i32 %1, i32 %3)
  %62 = sub nsw i32 %spec.select, %2
  %63 = getelementptr inbounds nuw i8, ptr %0, i64 1804
  %64 = load i32, ptr %63, align 4, !tbaa !187
  %65 = add i32 %64, %62
  store i32 %65, ptr %63, align 4, !tbaa !187
  br label %.critedge

.critedge:                                        ; preds = %12, %get_window.exit, %._crit_edge76, %61
  %.1 = phi i32 [ %62, %61 ], [ 0, %._crit_edge76 ], [ 0, %get_window.exit ], [ 0, %12 ]
  ret i32 %.1
}